target datalayout = "e-m:e-p270:32:32-p271:32:32-p272:64:64-i64:64-i128:128-f80:128-n8:16:32:64-S128"
target triple = "x86_64-pc-linux-gnu"

%struct.H5HF_hdr_t = type { %struct.H5C_cache_entry_t, i32, i32, i8, i8, i8, i8, %struct.H5HF_dtable_t, i64, i64, i32, i64, i64, %struct.H5O_pline_t, i64, i32, i64, i64, i64, i64, i64, i64, i64, i64, i64, i64, i64, i32, ptr, i64, i8, i8, i8, ptr, i32, ptr, %struct.H5HF_block_iter_t, ptr, i64, i8, i8, i64, i8, i8, i8, i8 }
%struct.H5C_cache_entry_t = type { ptr, i64, i64, ptr, i8, ptr, i8, i8, i8, i8, i32, i8, i8, i8, i8, i8, i32, ptr, i32, i32, i32, i32, i32, i8, i8, ptr, ptr, ptr, ptr, ptr, ptr, i8, i32, i8, i64, ptr, i64, i64, i32, i8, i32, i32, i8, ptr, ptr, ptr }
%struct.H5HF_dtable_t = type { %struct.H5HF_dtable_cparam_t, i64, i32, i32, i32, i32, i32, i32, i32, i64, ptr, ptr, ptr, ptr }
%struct.H5HF_dtable_cparam_t = type { i32, i64, i64, i32, i32 }
%struct.H5O_pline_t = type { %struct.H5O_shared_t, i32, i64, i64, ptr }
%struct.H5O_shared_t = type { i32, ptr, i32, %union.anon }
%union.anon = type { %struct.H5O_mesg_loc_t }
%struct.H5O_mesg_loc_t = type { i32, i64 }
%struct.H5HF_block_iter_t = type { i8, ptr }

@H5HF_init_g = external global i8, align 1
@H5_libterm_g = external global i8, align 1
@.str = private unnamed_addr constant [101 x i8] c"generated/home/dtcxzyw/WorkSpace/Projects/compilers/llvm-opt-benchmark/bench/hdf5/hdf5/src/H5HFhdr.c\00", align 1
@H5E_HEAP_g = external global i64, align 8
@__func__.H5HF__hdr_decr = private unnamed_addr constant [15 x i8] c"H5HF__hdr_decr\00", align 1
@H5E_CANTUNPIN_g = external global i64, align 8
@.str.23 = private unnamed_addr constant [36 x i8] c"unable to unpin fractal heap header\00", align 1

; Function Attrs: nounwind uwtable
define i32 @H5HF__hdr_decr(ptr noundef %0) #0 {
  %2 = alloca ptr, align 8
  %3 = alloca i32, align 4
  %4 = alloca i8, align 1
  store ptr %0, ptr %2, align 8, !tbaa !8
  call void @llvm.lifetime.start.p0(i64 4, ptr %3) #7
  store i32 0, ptr %3, align 4, !tbaa !38
  call void @llvm.lifetime.start.p0(i64 1, ptr %4) #7
  store i8 0, ptr %4, align 1, !tbaa !10
  %5 = load i8, ptr @H5HF_init_g, align 1, !tbaa !10, !range !12, !noundef !13
  %6 = trunc i8 %5 to i1
  br i1 %6, label %11, label %7

7:                                                ; preds = %1
  %8 = load i8, ptr @H5_libterm_g, align 1, !tbaa !10, !range !12, !noundef !13
  %9 = trunc i8 %8 to i1
  %10 = xor i1 %9, true
  br label %11

11:                                               ; preds = %7, %1
  %12 = phi i1 [ true, %1 ], [ %10, %7 ]
  %13 = xor i1 %12, true
  %14 = xor i1 %13, true
  %15 = zext i1 %14 to i32
  %16 = sext i32 %15 to i64
  %17 = call i64 @llvm.expect.i64(i64 %16, i64 1)
  %18 = icmp ne i64 %17, 0
  br i1 %18, label %19, label %54

19:                                               ; preds = %11
  %20 = load ptr, ptr %2, align 8, !tbaa !8
  %21 = getelementptr inbounds nuw %struct.H5HF_hdr_t, ptr %20, i32 0, i32 24
  %22 = load i64, ptr %21, align 8, !tbaa !74
  %23 = add i64 %22, -1
  store i64 %23, ptr %21, align 8, !tbaa !74
  %24 = load ptr, ptr %2, align 8, !tbaa !8
  %25 = getelementptr inbounds nuw %struct.H5HF_hdr_t, ptr %24, i32 0, i32 24
  %26 = load i64, ptr %25, align 8, !tbaa !74
  %27 = icmp eq i64 %26, 0
  br i1 %27, label %28, label %52

28:                                               ; preds = %19
  %29 = load ptr, ptr %2, align 8, !tbaa !8
  %30 = call i32 @H5AC_unpin_entry(ptr noundef %29)
  %31 = icmp slt i32 %30, 0
  br i1 %31, label %32, label %51

32:                                               ; preds = %28
  br label %33

33:                                               ; preds = %32
  br label %34

34:                                               ; preds = %33
  br label %35

35:                                               ; preds = %34
  %36 = load i64, ptr @H5E_HEAP_g, align 8, !tbaa !14
  %37 = load i64, ptr @H5E_CANTUNPIN_g, align 8, !tbaa !14
  %38 = call i32 (ptr, ptr, i32, i64, i64, ptr, ...) @H5E_printf_stack(ptr noundef @.str, ptr noundef @__func__.H5HF__hdr_decr, i32 noundef 585, i64 noundef %36, i64 noundef %37, ptr noundef @.str.23)
  br label %39

39:                                               ; preds = %35
  br label %40

40:                                               ; preds = %39
  store i8 1, ptr %4, align 1, !tbaa !10
  %41 = load i8, ptr %4, align 1, !tbaa !10, !range !12, !noundef !13
  %42 = trunc i8 %41 to i1
  %43 = zext i1 %42 to i8
  store i8 %43, ptr %4, align 1, !tbaa !10
  br label %44

44:                                               ; preds = %40
  br label %45

45:                                               ; preds = %44
  br label %46

46:                                               ; preds = %45
  store i32 -1, ptr %3, align 4, !tbaa !38
  br label %53

47:                                               ; No predecessors!
  br label %48

48:                                               ; preds = %47
  br label %49

49:                                               ; preds = %48
  br label %50

50:                                               ; preds = %49
  br label %51

51:                                               ; preds = %50, %28
  br label %52

52:                                               ; preds = %51, %19
  br label %53

53:                                               ; preds = %52, %46
  br label %54

54:                                               ; preds = %53, %11
  %55 = load i32, ptr %3, align 4, !tbaa !38
  call void @llvm.lifetime.end.p0(i64 1, ptr %4) #7
  call void @llvm.lifetime.end.p0(i64 4, ptr %3) #7
  ret i32 %55
}